(lp0
(lp1
I650
aI650
aI650
aI650
aI650
aI650
aI650
aI650
aI650
aI650
aa(lp2
I650
aI650
aI650
aI650
aI650
aI650
aI650
aI650
aI650
aI650
aI650
aI650
aI650
aI650
aI650
aI650
aI650
aI650
aI650
aI650
aa(lp3
I650
aI650
aI650
aI650
aI650
aI650
aI650
aI650
aI650
aI650
aI650
aI650
aI650
aI650
aI650
aI650
aI650
aI650
aI650
aI650
aa(lp4
I650
aI650
aI650
aI650
aI650
aI650
aI650
aI650
aI650
aI650
aI650
aI650
aI650
aI650
aI650
aI650
aI650
aI650
aI650
aI650
aa(lp5
I650
aI650
aI650
aI650
aI650
aI650
aI650
aI650
aI650
aI650
aI650
aI650
aI650
aI650
aI650
aI650
aI650
aI650
aI650
aI650
aa(lp6
I650
aI650
aI650
aI650
aI650
aI650
aI650
aI650
aI650
aI650
aI650
aI650
aI650
aI650
aI650
aI650
aI650
aI650
aI650
aI650
aI650
aa(lp7
I650
aI650
aI650
aI650
aI650
aI650
aI650
aI650
aI650
aI650
aI650
aI650
aI650
aI650
aI650
aI650
aI650
aI650
aI650
aI650
aI650
aa(lp8
I650
aI650
aI650
aI650
aI650
aI650
aI650
aI650
aI650
aI650
aI650
aI650
aI650
aI650
aI650
aI650
aI650
aI650
aI650
aI650
aI650
aa(lp9
I650
aI650
aI650
aI650
aI650
aI650
aI650
aI650
aI650
aI650
aI650
aI650
aI650
aI650
aI650
aI650
aI650
aI650
aI650
aI650
aI650
aa(lp10
I650
aI650
aI650
aI650
aI650
aI650
aI650
aI650
aI650
aI650
aI650
aI650
aI650
aI650
aI650
aI650
aI650
aI650
aI650
aI650
aI650
aa(lp11
I650
aI650
aI650
aI650
aI650
aI650
aI650
aI650
aI650
aI650
aI359
aI650
aI650
aI650
aI650
aI650
aI650
aI650
aI650
aI650
aI650
aa(lp12
I650
aI650
aI650
aI650
aI650
aI650
aI650
aI650
aI650
aI650
aI650
aI650
aI650
aI650
aI650
aI650
aI650
aI650
aI650
aI650
aI650
aa(lp13
I650
aI650
aI650
aI650
aI650
aI650
aI650
aI650
aI650
aI650
aI650
aI650
aI650
aI650
aI650
aI650
aI650
aI650
aI650
aI650
aI650
aa(lp14
I650
aI650
aI650
aI650
aI650
aI650
aI650
aI650
aI650
aI650
aI650
aI650
aI650
aI650
aI650
aI650
aI650
aI650
aI650
aI650
aI650
aa(lp15
I650
aI650
aI650
aI650
aI650
aI650
aI650
aI650
aI650
aI650
aI650
aI650
aI650
aI650
aI650
aI650
aI650
aI650
aI650
aI650
aI650
aa(lp16
I650
aI650
aI650
aI650
aI650
aI650
aI650
aI650
aI650
aI650
aI650
aI650
aI650
aI650
aI650
aI650
aI650
aI650
aI650
aI650
aI650
aa(lp17
I650
aI650
aI650
aI650
aI650
aI650
aI650
aI650
aI650
aI650
aI650
aI650
aI650
aI650
aI650
aI650
aI650
aI650
aI650
aI650
aI650
aa(lp18
I650
aI650
aI650
aI650
aI650
aI650
aI650
aI650
aI650
aI650
aI650
aI650
aI650
aI650
aI650
aI650
aI650
aI650
aI650
aI650
aI650
aa(lp19
I650
aI650
aI650
aI650
aI650
aI650
aI650
aI650
aI650
aI650
aI650
aI650
aI650
aI650
aI650
aI650
aI650
aI650
aI650
aI650
aI650
aa(lp20
I650
aI650
aI650
aI650
aI650
aI650
aI650
aI650
aI650
aI650
aI650
aI650
aI650
aI650
aI650
aI650
aI650
aI650
aI650
aI650
aI650
aa(lp21
I650
aI650
aI650
aI650
aI650
aI650
aI650
aI650
aI650
aI650
aI650
aI650
aI650
aI650
aI650
aI650
aI650
aI650
aI650
aI650
aI650
aa(lp22
I650
aI650
aI650
aI650
aI650
aI650
aI650
aI650
aI650
aI650
aI650
aI650
aI650
aI650
aI650
aI650
aI650
aI650
aI650
aI650
aI650
aa(lp23
I650
aI650
aI650
aI650
aI650
aI650
aI650
aI650
aI650
aI650
aI650
aI650
aI650
aI650
aI650
aI650
aI650
aI650
aI650
aI650
aI650
aa(lp24
I650
aI650
aI650
aI650
aI650
aI650
aI650
aI650
aI650
aI650
aI650
aI650
aI650
aI650
aI650
aI650
aI650
aI650
aI650
aI650
aI650
aa(lp25
I650
aI650
aI650
aI650
aI650
aI650
aI650
aI650
aI650
aI650
aI650
aI650
aI650
aI650
aI650
aI650
aI650
aI650
aI650
aI650
aI650
aa(lp26
I650
aI650
aI650
aI650
aI650
aI650
aI650
aI650
aI650
aI650
aI650
aI650
aI650
aI650
aI650
aI650
aI650
aI650
aI650
aI650
aI650
aa(lp27
I650
aI650
aI650
aI650
aI650
aI650
aI650
aI650
aI650
aI650
aI650
aI650
aI650
aI650
aI650
aI650
aI650
aI650
aI650
aI650
aI650
aa(lp28
I650
aI650
aI650
aI650
aI650
aI650
aI650
aI650
aI650
aI650
aI650
aI650
aI650
aI650
aI650
aI650
aI650
aI650
aI650
aI650
aI650
aa(lp29
I650
aI650
aI650
aI650
aI650
aI650
aI650
aI650
aI650
aI650
aI650
aI650
aI650
aI650
aI650
aI650
aI650
aI650
aI650
aI650
aI650
aa(lp30
I650
aI650
aI650
aI650
aI650
aI650
aI650
aI650
aI650
aI650
aI650
aI650
aI650
aI650
aI650
aI650
aI650
aI650
aI650
aI650
aI650
aa(lp31
I650
aI650
aI650
aI650
aI650
aI650
aI650
aI650
aI650
aI650
aI650
aI650
aI650
aI650
aI650
aI650
aI650
aI650
aI650
aI650
aI650
aa(lp32
I650
aI650
aI650
aI650
aI650
aI650
aI650
aI650
aI650
aI650
aI650
aI650
aI650
aI650
aI650
aI650
aI650
aI650
aI650
aI650
aI650
aa(lp33
I650
aI650
aI650
aI650
aI650
aI650
aI650
aI650
aI650
aI650
aI650
aI650
aI650
aI650
aI650
aI650
aI650
aI650
aI650
aI650
aI650
aa(lp34
I650
aI650
aI650
aI650
aI650
aI650
aI650
aI650
aI650
aI650
aI650
aI650
aI650
aI650
aI650
aI650
aI650
aI650
aI650
aI650
aI650
aa(lp35
I650
aI650
aI650
aI650
aI650
aI650
aI650
aI650
aI650
aI650
aI650
aI650
aI650
aI650
aI650
aI650
aI650
aI650
aI650
aI650
aI650
aa(lp36
I650
aI650
aI650
aI650
aI650
aI650
aI650
aI650
aI650
aI650
aI650
aI650
aI650
aI650
aI650
aI650
aI650
aI650
aI650
aI650
aI650
aa(lp37
I650
aI650
aI650
aI650
aI650
aI650
aI650
aI650
aI650
aI650
aI650
aI650
aI650
aI650
aI650
aI650
aI650
aI650
aI650
aI650
aI650
aa(lp38
I650
aI650
aI650
aI650
aI650
aI650
aI650
aI650
aI650
aI650
aI650
aI650
aI650
aI650
aI650
aI650
aI650
aI650
aI650
aI650
aI650
aa(lp39
I650
aI650
aI650
aI650
aI650
aI650
aI650
aI650
aI650
aI650
aI650
aI650
aI650
aI650
aI650
aI650
aI650
aI650
aI650
aI650
aI650
aa(lp40
I650
aI650
aI650
aI650
aI650
aI650
aI650
aI650
aI650
aI650
aI650
aI650
aI650
aI650
aI650
aI650
aI650
aI650
aI650
aI650
aI650
aa(lp41
I650
aI650
aI650
aI650
aI650
aI650
aI650
aI650
aI650
aI650
aI650
aI650
aI650
aI650
aI650
aI650
aI650
aI650
aI650
aI650
aI650
aa(lp42
I650
aI650
aI650
aI650
aI650
aI650
aI650
aI650
aI650
aI650
aI650
aI650
aI650
aI650
aI650
aI650
aI650
aI650
aI650
aI650
aI650
aa(lp43
I650
aI650
aI650
aI650
aI650
aI650
aI650
aI650
aI650
aI650
aI650
aI650
aI650
aI650
aI650
aI650
aI650
aI650
aI650
aI650
aI650
aa(lp44
I650
aI650
aI650
aI650
aI650
aI650
aI650
aI650
aI650
aI650
aI650
aI650
aI650
aI650
aI650
aI650
aI650
aI650
aI650
aI650
aI650
aa(lp45
I650
aI650
aI650
aI650
aI650
aI650
aI650
aI650
aI650
aI650
aI650
aI650
aI650
aI650
aI650
aI650
aI650
aI650
aI650
aI650
aI650
aa(lp46
I650
aI650
aI650
aI650
aI650
aI650
aI650
aI650
aI650
aI650
aI650
aI650
aI650
aI650
aI650
aI650
aI650
aI650
aI650
aI650
aI650
aa(lp47
I650
aI650
aI650
aI650
aI650
aI650
aI650
aI650
aI650
aI650
aI650
aI650
aI650
aI650
aI650
aI650
aI650
aI650
aI650
aI650
aI650
aa(lp48
I650
aI650
aI650
aI650
aI650
aI650
aI650
aI650
aI650
aI650
aI650
aI650
aI650
aI650
aI650
aI650
aI650
aI650
aI650
aI650
aI650
aa(lp49
I650
aI650
aI650
aI650
aI650
aI650
aI650
aI650
aI650
aI650
aI650
aI650
aI650
aI650
aI650
aI650
aI650
aI650
aI650
aI650
aI650
aa(lp50
I650
aI650
aI650
aI650
aI650
aI650
aI650
aI650
aI650
aI650
aI650
aI650
aI650
aI650
aI650
aI650
aI650
aI650
aI650
aI650
aI650
aa(lp51
I650
aI650
aI650
aI650
aI650
aI650
aI650
aI650
aI650
aI650
aI650
aI650
aI650
aI650
aI650
aI650
aI650
aI650
aI650
aI650
aI650
aa(lp52
I650
aI650
aI650
aI650
aI650
aI650
aI650
aI650
aI650
aI650
aI650
aI650
aI650
aI650
aI650
aI650
aI650
aI650
aI650
aI650
aI650
aa(lp53
I650
aI650
aI650
aI650
aI650
aI650
aI650
aI650
aI650
aI650
aI650
aI650
aI650
aI650
aI650
aI650
aI650
aI650
aI650
aI650
aI650
aa(lp54
I650
aI650
aI650
aI650
aI650
aI650
aI650
aI650
aI650
aI650
aI650
aI650
aI650
aI650
aI650
aI650
aI650
aI650
aI650
aI650
aI650
aa(lp55
I650
aI561
aI650
aI563
aI650
aI562
aI650
aI561
aI650
aI561
aI650
aI563
aI650
aI562
aI650
aI561
aI650
aI559
aI650
aI563
aI650
aa(lp56
I564
aI591
aI567
aI589
aI567
aI589
aI572
aI586
aI589
aI595
aI565
aI591
aI569
aI590
aI566
aI587
aI650
aI588
aI563
aI589
aI563
aa(lp57
I633
aI619
aI629
aI621
aI615
aI623
aI645
aI618
aI618
aI623
aI637
aI620
aI608
aI619
aI609
aI619
aI617
aI616
aI620
aI619
aI625
aa(lp58
I613
aI650
aI615
aI650
aI610
aI650
aI612
aI650
aI612
aI650
aI611
aI650
aI612
aI650
aI615
aI650
aI616
aI650
aI614
aI650
aI612
aa(lp59
I650
aI650
aI650
aI650
aI650
aI650
aI650
aI650
aI650
aI650
aI650
aI650
aI650
aI650
aI650
aI650
aI650
aI650
aI650
aI650
aI650
aa(lp60
I650
aI650
aI650
aI650
aI650
aI650
aI650
aI650
aI650
aI650
aI650
aI650
aI650
aI650
aI650
aI650
aI650
aI650
aI650
aI650
aI650
aa(lp61
I650
aI650
aI650
aI650
aI650
aI650
aI650
aI650
aI650
aI650
aI650
aI650
aI650
aI650
aI650
aI650
aI650
aI650
aI650
aI650
aI650
aa(lp62
I650
aI650
aI650
aI650
aI650
aI650
aI650
aI650
aI650
aI650
aI650
aI650
aI650
aI650
aI650
aI650
aI650
aI650
aI650
aI650
aI650
aa(lp63
I650
aI650
aI650
aI650
aI650
aI650
aI650
aI650
aI650
aI650
aI650
aI650
aI650
aI650
aI650
aI650
aI650
aI650
aI650
aI650
aI650
aa(lp64
I650
aI650
aI650
aI650
aI650
aI650
aI650
aI650
aI650
aI650
aI650
aI650
aI650
aI650
aI650
aI650
aI650
aI650
aI650
aI650
aI650
aa(lp65
I650
aI650
aI650
aI650
aI650
aI650
aI650
aI650
aI650
aI650
aI650
aI650
aI650
aI650
aI650
aI650
aI650
aI650
aI650
aI650
aI650
aa(lp66
I650
aI650
aI650
aI650
aI650
aI650
aI650
aI650
aI650
aI650
aI650
aI650
aI650
aI650
aI650
aI650
aI650
aI650
aa(lp67
I650
aI650
aI650
aI650
aI650
aI650
aI650
aI650
aI650
aI650
aI650
aI650
aI650
aI650
aI650
aI650
aI650
aI650
aa(lp68
I650
aI650
aI650
aI650
aI650
aI650
aI650
aI650
aI650
aI650
aI650
aI650
aI650
aI650
aI650
aI650
aI650
aI650
aa(lp69
I650
aI650
aI650
aI650
aI650
aI650
aI650
aI650
aI650
aI650
aI650
aI650
aI650
aI650
aI650
aI650
aI650
aI650
aa(lp70
I650
aI650
aI650
aI650
aI650
aI650
aI650
aI650
aI650
aI650
aI650
aI650
aI650
aI650
aI650
aI650
aI650
aI650
aa(lp71
I650
aI650
aI650
aI650
aI650
aI650
aI650
aI650
aI650
aI650
aI650
aI650
aI650
aI650
aI650
aI650
aI650
aI650
aa(lp72
I650
aI650
aI650
aI650
aI650
aI650
aI650
aI650
aI650
aI650
aI650
aI650
aI650
aI650
aI650
aI650
aI650
aI650
aa(lp73
I650
aI631
aI650
aI639
aI650
aI636
aI650
aI635
aI650
aI630
aI650
aI650
aI633
aI650
aI633
aI650
aI650
aI650
aa(lp74
I650
aI650
aI650
aI650
aI650
aI650
aI648
aI650
aI649
aI650
aI642
aI650
aI650
aI650
aI650
aI647
aI650
aI650
aa(lp75
I650
aI650
aI650
aI650
aI650
aI650
aI650
aI650
aI650
aI650
aI650
aI650
aI650
aI650
aI650
aI650
aI650
aI650
aa(lp76
I650
aI650
aI650
aI650
aI650
aI650
aI650
aI650
aI650
aI650
aI650
aI650
aI650
aI650
aI650
aI650
aI650
aI650
aa(lp77
I650
aI650
aI650
aI650
aI650
aI650
aI650
aI650
aI650
aI650
aI650
aI650
aI650
aI650
aI650
aI650
aI650
aI650
aa(lp78
I650
aI650
aI650
aI650
aI650
aI650
aI650
aI650
aI650
aI650
aI650
aI650
aI650
aI650
aI650
aI650
aI650
aI650
aa(lp79
I650
aI650
aI650
aI650
aI650
aI650
aI650
aI650
aI650
aI650
aI650
aI650
aI650
aI650
aI650
aI650
aI650
aI650
aa(lp80
I650
aI650
aI650
aI650
aI650
aI650
aI650
aI650
aI650
aI650
aI650
aI650
aI650
aI650
aI650
aI650
aI650
aI650
aa(lp81
I650
aI637
aI650
aI642
aI650
aI637
aI650
aI641
aI650
aI638
aI650
aI650
aI639
aI650
aI640
aI650
aI650
aI650
aa(lp82
I650
aI632
aI650
aI650
aI650
aI630
aI650
aI630
aI650
aI635
aI650
aI650
aI635
aI650
aI637
aI650
aI650
aI650
aa(lp83
I634
aI650
aI633
aI650
aI635
aI650
aI634
aI650
aI635
aI650
aI636
aI634
aI650
aI635
aI650
aI635
aI637
aI635
aa(lp84
I650
aI650
aI650
aI650
aI650
aI650
aI650
aI650
aI650
aI650
aI650
aI650
aI650
aI650
aI650
aI650
aI650
aI650
aa(lp85
I650
aI650
aI650
aI650
aI650
aI650
aI650
aI650
aI650
aI650
aI650
aI650
aI650
aI650
aI650
aI650
aI650
aI650
aa(lp86
I650
aI650
aI650
aI650
aI650
aI650
aI650
aI650
aI650
aI650
aI650
aI650
aI650
aI650
aI650
aI650
aI650
aI650
aa(lp87
I650
aI650
aI650
aI650
aI650
aI650
aI650
aI650
aI650
aI650
aI650
aI650
aI650
aI650
aI650
aa(lp88
I650
aI650
aI650
aI650
aI650
aI650
aI650
aI650
aI650
aI650
aI650
aI650
aI650
aI650
aI650
aI650
aI650
aI650
aI650
aI650
aI650
aa(lp89
I650
aI650
aI650
aI650
aI650
aI650
aI650
aI650
aI650
aI650
aI650
aI650
aI650
aI650
aI650
aI650
aa(lp90
I650
aI650
aI650
aI650
aI650
aI650
aI650
aI650
aI650
aI650
aI650
aI650
aI650
aI650
aI650
aI650
aa(lp91
I650
aI650
aI650
aI650
aI650
aI650
aI650
aI650
aI650
aI650
aI650
aI650
aI650
aI650
aI650
aI650
aa(lp92
I650
aI650
aI650
aI650
aI650
aI650
aI650
aI650
aI650
aI650
aI650
aI650
aI650
aI650
aI650
aI650
aa(lp93
I650
aI650
aI650
aI650
aI650
aI650
aI650
aI650
aI650
aI650
aI650
aI650
aI650
aI650
aI650
aI650
aa(lp94
I650
aI650
aI650
aI650
aI650
aI650
aI650
aI650
aI650
aI650
aI650
aI650
aI650
aI650
aI650
aI650
aa(lp95
I650
aI650
aI650
aI650
aI650
aI650
aI650
aI650
aI650
aI650
aI650
aI650
aI650
aI650
aI650
aa(lp96
I650
aI650
aI650
aI650
aI650
aI650
aI650
aI650
aI650
aI650
aI650
aa(lp97
I650
aI650
aI650
aI650
aI650
aI650
aI650
aI650
aI650
aI650
aI650
aa(lp98
I650
aI650
aI650
aI650
aI650
aI650
aI650
aI650
aI650
aI650
aI650
aa(lp99
I650
aI650
aI650
aI650
aI650
aI650
aa.