(lp0
(lp1
I650
aI650
aI650
aI650
aI650
aI650
aI650
aI650
aI650
aI650
aI650
aI650
aI650
aI650
aI650
aI373
aa(lp2
I650
aI650
aI650
aI650
aI650
aI650
aI650
aI650
aI650
aI650
aI650
aI650
aI650
aI650
aI650
aI650
aI650
aI650
aI650
aI650
aI650
aI650
aI650
aI650
aI650
aI650
aI650
aI375
aI348
aa(lp3
I650
aI650
aI650
aI650
aI650
aI650
aI650
aI650
aI650
aI650
aI650
aI650
aI650
aI650
aI650
aI650
aI650
aI650
aI650
aI650
aI650
aI650
aI650
aI650
aI650
aI650
aI650
aI650
aI650
aI650
aI372
aI650
aa(lp4
I650
aI650
aI650
aI650
aI650
aI650
aI650
aI650
aI650
aI650
aI650
aI650
aI650
aI650
aI650
aI650
aI352
aI650
aI650
aI650
aI650
aI650
aI650
aI650
aI650
aI650
aI650
aI650
aI650
aI650
aI650
aI650
aa(lp5
I650
aI650
aI650
aI650
aI650
aI650
aI650
aI650
aI650
aI650
aI650
aI650
aI650
aI650
aI650
aI650
aI359
aI650
aI650
aI650
aI650
aI650
aI650
aI650
aI650
aI650
aI650
aI650
aI650
aI650
aI650
aI650
aa(lp6
I650
aI650
aI650
aI650
aI650
aI650
aI650
aI650
aI650
aI650
aI650
aI650
aI650
aI650
aI650
aI650
aI650
aI650
aI650
aI650
aI650
aI650
aI650
aI650
aI650
aI650
aI650
aI650
aI650
aI650
aI650
aI650
aa(lp7
I650
aI650
aI650
aI650
aI650
aI650
aI650
aI650
aI650
aI650
aI650
aI650
aI650
aI650
aI650
aI650
aI650
aI650
aI650
aI650
aI650
aI650
aI650
aI650
aI650
aI650
aI650
aI650
aI650
aI650
aI650
aI650
aa(lp8
I650
aI650
aI650
aI650
aI650
aI650
aI650
aI650
aI650
aI650
aI650
aI650
aI650
aI650
aI650
aI650
aI650
aI380
aI650
aI650
aI650
aI650
aI650
aI650
aI650
aI650
aI650
aI650
aI650
aI650
aI650
aI650
aa(lp9
I650
aI650
aI650
aI650
aI650
aI650
aI650
aI650
aI650
aI650
aI361
aI650
aI650
aI650
aI355
aI650
aI650
aI650
aI354
aI650
aI650
aI650
aI650
aI650
aI650
aI650
aI650
aI650
aI650
aI650
aI650
aI650
aa(lp10
I650
aI650
aI650
aI650
aI650
aI650
aI650
aI650
aI367
aI650
aI354
aI650
aI357
aI650
aI360
aI650
aI359
aI650
aI650
aI650
aI650
aI650
aI360
aI650
aI650
aI650
aI650
aI650
aI650
aa(lp11
I650
aI650
aI650
aI650
aI650
aI650
aI650
aI650
aI650
aI650
aI360
aI650
aI358
aI356
aI350
aI360
aI650
aI650
aI650
aI650
aI650
aI371
aI650
aI364
aI650
aI650
aI650
aI650
aI650
aI650
aa(lp12
I650
aI650
aI650
aI650
aI650
aI650
aI382
aI650
aI357
aI650
aI650
aI650
aI357
aI650
aI650
aI650
aI370
aI650
aI650
aI650
aI650
aI650
aa(lp13
I650
aI650
aI650
aI650
aI650
aI650
aI650
aI650
aI650
aI650
aI650
aI650
aI650
aI650
aI650
aI650
aI650
aI650
aI650
aI650
aI650
aI650
aI650
aI650
aI650
aI650
aI650
aI650
aI650
aI650
aI650
aa(lp14
I650
aI650
aI650
aI650
aI650
aI650
aI650
aI650
aI650
aI650
aI650
aI650
aI650
aI650
aI650
aI650
aI650
aI650
aI650
aI650
aI650
aI650
aI650
aI650
aI650
aI650
aI650
aI650
aI650
aI650
aa(lp15
I650
aI650
aI650
aI650
aI650
aI650
aI650
aI650
aI650
aI650
aI650
aI650
aI650
aI650
aI650
aI650
aI650
aI650
aI380
aI650
aI650
aI650
aI650
aI650
aI650
aI650
aI650
aI650
aI650
aI650
aI650
aI650
aI650
aa(lp16
I650
aI650
aI650
aI650
aI650
aI650
aI650
aI650
aI650
aI650
aI650
aI650
aI650
aI650
aI650
aI650
aI650
aI650
aI384
aI650
aI650
aI650
aI650
aI650
aI650
aI650
aI650
aI650
aI650
aI650
aI650
aI650
aI650
aa(lp17
I650
aI650
aI650
aI650
aI650
aI650
aI650
aI650
aI650
aI650
aI650
aI650
aI650
aI650
aI650
aI650
aI650
aI650
aI650
aI650
aI650
aI650
aI650
aI650
aI650
aI650
aI650
aI650
aI650
aI650
aI650
aa(lp18
I650
aI650
aI650
aI650
aI650
aI650
aI650
aI650
aI650
aI650
aI650
aI650
aI650
aI650
aI650
aI650
aI650
aI650
aI650
aI650
aI650
aI650
aI650
aI650
aI650
aI650
aI650
aI650
aa(lp19
I650
aI650
aI650
aI650
aI650
aI650
aI650
aI650
aI650
aI650
aI650
aI650
aI650
aI650
aI650
aI650
aI650
aI650
aI650
aI650
aI650
aI650
aI650
aI650
aI650
aI650
aI650
aI650
aa(lp20
I650
aI650
aI650
aI650
aI650
aI650
aI650
aI650
aI650
aI650
aI650
aI650
aI650
aI650
aI650
aI650
aI650
aI650
aI650
aI650
aI650
aI650
aI650
aI650
aI650
aI650
aI650
aa(lp21
I650
aI650
aI650
aI650
aI650
aI650
aI650
aI650
aI650
aI650
aI650
aI650
aI650
aI650
aI650
aI650
aI650
aI650
aI650
aI650
aI650
aI650
aa(lp22
I650
aI650
aI650
aI650
aI650
aI650
aI650
aI650
aI650
aI650
aI650
aI650
aI650
aI650
aI650
aI650
aI650
aI650
aI650
aI650
aI650
aa(lp23
I650
aI650
aI650
aI650
aI650
aI650
aI650
aI650
aI650
aI650
aI650
aI650
aI650
aI650
aI650
aI650
aI650
aI650
aI650
aI650
aI650
aI650
aI650
aI650
aI650
aI650
aI328
aI650
aI650
aa(lp24
I650
aI650
aI650
aI650
aI650
aI650
aI650
aI650
aI650
aI650
aI650
aI650
aI650
aI650
aI650
aI650
aI650
aI650
aI650
aI650
aI650
aI650
aI650
aI650
aI323
aI650
aI650
aa(lp25
I650
aI650
aI650
aI650
aI650
aI650
aI650
aI650
aI650
aI650
aI650
aI650
aI650
aI650
aI650
aI650
aI650
aI650
aI650
aI650
aI650
aa(lp26
I650
aI650
aI650
aI650
aI650
aI650
aI650
aI650
aI650
aI650
aI650
aI650
aI650
aI650
aI650
aI650
aI650
aI650
aI650
aI650
aI650
aa(lp27
I650
aI650
aI650
aI650
aI650
aI650
aI650
aI650
aI650
aI650
aI650
aI650
aI650
aI650
aI650
aI650
aI650
aI650
aI650
aI650
aI650
aI650
aI650
aI650
aI650
aI650
aI650
aI650
aI650
aI650
aa(lp28
I650
aI650
aI650
aI650
aI650
aI650
aI650
aI650
aI650
aI650
aI650
aI650
aI650
aI650
aI650
aI650
aI650
aI650
aI650
aI650
aI650
aI650
aI650
aI650
aI650
aI650
aa(lp29
I650
aI650
aI650
aI650
aI650
aI650
aI650
aI650
aI650
aI650
aI650
aI650
aI650
aI650
aI650
aI650
aI650
aI650
aI650
aI650
aa(lp30
I650
aI650
aI650
aI650
aI650
aI650
aI650
aI650
aI650
aI650
aI650
aI650
aI650
aI650
aI650
aI650
aI650
aI650
aI650
aI650
aI650
aI650
aI650
aa(lp31
I650
aI650
aI650
aI650
aI650
aI650
aI650
aI650
aI650
aI650
aI650
aI650
aI650
aI650
aI650
aI650
aI650
aI650
aI650
aI650
aI650
aI650
aI650
aI650
aI650
aI650
aI650
aI650
aI650
aI650
aa(lp32
I650
aI650
aI650
aI650
aI650
aI650
aI650
aI650
aI650
aI650
aI650
aI650
aI650
aI650
aI650
aI650
aI650
aI650
aI650
aI650
aI650
aI650
aI650
aI650
aa(lp33
I650
aI650
aI650
aI650
aI650
aI650
aI650
aI650
aI650
aI650
aI650
aI650
aI650
aI650
aI650
aI650
aI650
aI650
aI650
aI650
aa(lp34
I650
aI650
aI650
aI650
aI650
aI650
aI650
aI650
aI650
aI650
aI650
aI650
aI650
aI650
aI650
aI650
aI650
aI650
aI650
aI650
aI650
aI650
aI650
aI650
aI650
aI650
aI650
aI650
aI650
aI650
aa(lp35
I650
aI650
aI650
aI650
aI650
aI650
aI650
aI650
aI650
aI650
aI650
aI650
aI650
aI650
aI650
aI650
aI650
aI650
aI650
aI650
aI650
aI650
aI650
aI650
aI650
aI650
aI650
aI650
aI650
aI650
aI650
aI650
aI650
aa(lp36
I650
aI650
aI650
aI650
aI650
aI650
aI650
aI650
aI650
aI650
aI650
aI650
aI650
aI650
aI650
aI650
aI650
aI650
aI650
aI650
aI650
aI650
aI650
aI650
aI650
aI650
aI650
aI650
aI650
aI650
aI650
aI650
aa(lp37
I650
aI650
aI650
aI650
aI650
aI650
aI650
aI650
aI650
aI650
aI650
aI650
aI650
aI650
aI650
aI650
aI650
aI650
aI650
aI650
aI650
aI650
aI650
aI650
aI650
aI650
aI650
aI650
aI650
aI650
aI650
aa(lp38
I650
aI650
aI650
aI650
aI650
aI650
aI650
aI650
aI650
aI650
aI650
aI650
aI650
aI650
aI650
aI650
aI650
aI650
aI650
aI650
aI650
aI650
aI650
aI650
aI650
aI650
aI650
aI650
aI650
aI650
aa(lp39
I650
aI650
aI650
aI650
aI650
aI650
aI650
aI650
aI650
aI650
aI650
aI650
aI650
aI650
aI650
aI650
aI650
aI650
aI650
aI650
aI650
aI650
aI650
aI650
aI650
aI650
aI650
aI650
aI650
aI650
aI650
aI650
aa(lp40
I650
aI650
aI650
aI650
aI650
aI650
aI650
aI650
aI650
aI650
aI650
aI650
aI650
aI650
aI650
aI650
aI650
aI650
aI650
aI650
aI650
aI650
aI650
aI650
aI650
aI650
aI650
aI650
aI650
aI650
aa(lp41
I650
aI650
aI650
aI650
aI650
aI650
aI650
aI650
aI650
aI650
aI650
aI650
aI650
aI650
aI650
aI650
aI650
aI650
aI650
aI650
aI650
aI650
aI650
aI650
aI650
aI650
aa(lp42
I650
aI650
aI650
aI650
aI650
aI650
aI650
aI650
aI650
aI650
aI650
aI650
aI650
aI650
aI650
aI650
aI650
aI650
aa(lp43
I650
aI650
aI650
aI650
aI650
aI650
aI650
aI650
aI650
aI650
aI650
aI650
aI650
aI650
aI650
aI650
aI650
aI650
aI650
aI650
aI650
aI650
aI650
aI650
aI650
aI650
aI650
aa(lp44
I650
aI650
aI650
aI650
aI650
aI650
aI650
aI650
aI650
aI650
aI650
aI650
aI650
aI650
aI650
aI650
aI650
aI650
aI650
aI650
aI650
aI650
aI650
aI650
aI650
aI650
aI650
aI650
aI650
aI650
aa(lp45
I650
aI650
aI650
aI650
aI650
aI650
aI650
aI650
aI650
aI650
aI650
aI650
aI650
aI650
aI650
aI650
aI650
aI650
aI650
aI650
aI650
aI650
aI650
aI650
aa(lp46
I650
aI650
aI650
aI650
aI650
aI650
aI650
aI650
aI650
aI650
aI650
aI650
aI650
aI650
aI650
aI650
aI650
aI650
aa(lp47
I650
aI650
aI650
aI650
aI650
aI650
aI650
aI650
aI650
aI650
aI650
aI650
aI650
aI650
aI650
aI650
aI650
aI650
aI650
aI650
aI650
aI650
aI650
aI650
aI650
aI650
aI650
aI650
aI650
aa(lp48
I650
aI650
aI650
aI650
aI650
aI650
aI650
aI650
aI650
aI650
aI650
aI650
aI650
aI650
aI650
aI650
aI650
aI650
aI650
aI650
aI650
aI650
aI650
aI650
aI650
aI650
aI650
aI650
aa(lp49
I650
aI650
aI650
aI650
aI650
aI650
aI650
aI650
aI650
aI650
aI650
aI650
aI650
aI650
aI650
aI650
aI650
aI650
aI650
aI650
aI650
aI650
aI650
aI650
aI650
aI650
aa(lp50
I650
aI650
aI650
aI650
aI650
aI650
aI650
aI650
aI650
aI650
aI650
aI650
aI650
aI650
aI650
aI650
aI650
aI650
aI650
aI650
aI650
aI650
aI650
aI650
aI650
aI650
aI650
aI650
aa(lp51
I650
aI650
aI650
aI650
aI650
aI650
aI650
aI650
aI650
aI650
aI650
aI650
aI650
aI650
aI650
aI650
aI650
aI650
aI650
aI650
aI650
aI650
aI650
aI650
aa(lp52
I650
aI650
aI650
aI650
aI650
aI650
aI650
aI650
aI650
aI650
aI650
aI650
aI650
aI650
aI650
aI650
aI650
aI650
aI650
aI650
aI650
aI650
aI650
aI650
aI650
aI650
aI650
aI650
aI650
aI650
aI650
aI650
aI650
aa(lp53
I650
aI650
aI650
aI650
aI650
aI650
aI650
aI650
aI650
aI650
aI650
aI650
aI650
aI650
aI650
aI650
aI650
aI650
aI650
aI650
aI650
aI650
aI650
aI650
aI650
aI650
aI650
aI650
aI650
aa(lp54
I650
aI650
aI650
aI650
aI650
aI650
aI650
aI650
aI650
aI650
aI650
aI650
aI650
aI650
aI650
aI650
aI650
aI650
aI650
aI650
aI650
aI650
aI650
aI650
aI650
aI650
aI650
aI650
aI650
aI650
aI650
aI650
aI650
aa(lp55
I650
aI626
aI650
aI609
aI650
aI606
aI650
aI561
aI650
aI563
aI650
aI558
aI650
aI564
aI650
aI619
aI650
aI650
aI650
aI562
aI650
aI559
aI650
aI650
aI563
aI650
aI560
aI650
aI561
aI650
aI561
aI650
aa(lp56
I650
aI605
aI650
aI603
aI560
aI599
aI560
aI606
aI650
aI604
aI650
aI597
aI561
aI591
aI563
aI601
aI560
aI614
aI561
aI584
aI650
aI588
aI562
aI605
aI650
aI593
aI650
aI594
aI650
aI591
aI574
aI586
aI563
aa(lp57
I573
aI639
aI605
aI638
aI614
aI637
aI611
aI650
aI603
aI649
aI598
aI650
aI623
aI617
aI626
aI646
aI615
aI650
aI601
aI614
aI595
aI650
aI607
aI641
aI574
aI650
aI601
aI650
aI603
aI613
aI624
aI615
aI605
aa(lp58
I617
aI650
aI611
aI650
aI611
aI650
aI611
aI650
aI608
aI650
aI597
aI650
aI609
aI650
aI610
aI650
aI612
aI650
aI610
aI650
aI611
aI650
aI608
aI650
aI616
aI650
aI609
aI650
aI611
aI650
aI607
aI650
aI604
aa(lp59
I650
aI650
aI650
aI650
aI650
aI650
aI650
aI650
aI650
aI650
aI650
aI650
aI650
aI650
aI650
aI650
aI650
aI650
aI650
aI650
aI650
aI650
aI650
aI650
aI650
aI650
aI650
aI650
aI650
aI650
aI650
aI650
aI650
aa(lp60
I650
aI650
aI650
aI650
aI650
aI650
aI650
aI650
aI650
aI650
aI650
aI650
aI650
aI650
aI650
aI650
aI650
aI650
aI650
aI650
aI650
aI650
aI650
aI650
aI650
aI650
aI650
aI650
aI650
aI650
aI650
aI650
aI650
aa(lp61
I650
aI650
aI650
aI650
aI650
aI650
aI650
aI650
aI650
aI650
aI650
aI650
aI650
aI650
aI650
aI650
aI650
aI650
aI650
aI650
aI650
aI650
aI650
aI650
aI650
aI650
aI650
aI650
aI650
aI650
aI650
aI650
aI650
aa(lp62
I650
aI650
aI650
aI650
aI650
aI650
aI650
aI650
aI650
aI650
aI650
aI650
aI650
aI650
aI650
aI650
aI650
aI650
aI650
aI650
aI650
aI650
aI650
aI650
aI650
aI650
aI650
aI650
aI650
aI650
aI650
aI650
aI650
aa(lp63
I650
aI650
aI650
aI650
aI650
aI650
aI650
aI650
aI650
aI650
aI650
aI650
aI650
aI650
aI650
aI650
aI650
aI650
aI650
aI650
aI650
aI650
aI650
aI650
aI650
aI650
aI650
aI650
aI650
aI650
aI650
aI650
aI650
aa(lp64
I650
aI650
aI650
aI650
aI650
aI650
aI650
aI650
aI650
aI650
aI650
aI650
aI650
aI650
aI650
aI650
aI650
aI650
aI650
aI650
aI650
aI650
aI650
aI650
aI650
aI650
aI650
aI650
aI650
aI650
aI650
aI650
aI650
aa(lp65
I650
aI650
aI650
aI650
aI650
aI650
aI650
aI650
aI650
aI650
aI650
aI650
aI650
aI650
aI650
aI650
aI650
aI650
aI650
aI650
aI650
aI650
aI650
aI650
aI650
aI650
aI650
aI650
aI650
aI650
aI650
aI650
aI650
aa(lp66
I650
aI650
aI650
aI650
aI650
aI650
aI650
aI650
aI650
aI650
aI650
aI650
aI650
aI650
aI650
aI650
aI650
aI650
aI650
aI650
aI650
aI650
aI650
aI650
aI650
aI650
aI650
aI650
aI650
aI650
aI650
aI650
aI650
aa(lp67
I650
aI650
aI650
aI650
aI650
aI650
aI650
aI650
aI650
aI650
aI650
aI650
aI650
aI650
aI650
aI650
aI650
aI650
aI650
aI650
aI650
aI650
aI650
aI650
aI650
aI650
aI650
aI650
aI650
aI650
aI650
aa(lp68
I650
aI650
aI650
aI650
aI650
aI650
aI650
aI650
aI650
aI650
aI650
aI650
aI650
aI650
aI650
aI650
aI650
aI650
aI650
aI650
aI650
aI650
aI650
aI650
aI650
aI650
aI650
aI650
aI650
aI650
aa(lp69
I650
aI650
aI650
aI650
aI650
aI650
aI650
aI650
aI650
aI650
aI650
aI650
aI650
aI650
aI650
aI650
aI650
aI650
aI650
aI650
aI650
aI650
aI650
aI650
aa(lp70
I650
aI650
aI650
aI650
aI650
aI650
aI650
aI650
aI650
aI650
aI650
aI650
aI650
aI650
aI650
aI650
aI650
aI650
aI650
aI650
aI650
aI650
aI650
aI650
aI650
aI650
aI650
aI650
aI650
aI650
aI650
aI650
aI650
aa(lp71
I650
aI650
aI650
aI650
aI650
aI650
aI650
aI650
aI650
aI650
aI650
aI650
aI650
aI650
aI650
aI650
aI650
aI650
aI650
aI650
aI650
aI650
aI650
aI650
aI650
aI650
aI650
aI650
aI650
aI650
aI650
aI650
aI650
aa(lp72
I650
aI650
aI650
aI650
aI650
aI650
aI650
aI650
aI650
aI650
aI650
aI650
aI650
aI650
aI650
aI650
aI650
aI650
aI650
aI650
aI650
aI650
aI650
aI650
aI650
aI650
aI650
aI650
aI650
aI650
aI650
aI650
aI650
aa(lp73
I650
aI650
aI650
aI650
aI650
aI650
aI650
aI650
aI650
aI650
aI650
aI650
aI650
aI650
aI650
aI650
aI650
aI650
aI650
aI650
aI650
aI650
aI650
aa(lp74
I650
aI650
aI650
aI650
aI650
aI650
aI650
aI650
aI650
aI650
aI650
aI650
aI650
aI650
aI650
aI650
aI650
aI650
aI650
aI650
aI650
aI650
aI650
aI650
aI650
aI650
aI650
aI650
aI650
aI650
aa(lp75
I650
aI650
aI650
aI650
aI650
aI650
aI650
aI650
aI650
aI650
aI650
aI650
aI650
aI650
aI650
aI650
aI650
aI650
aI650
aI650
aI650
aI650
aI650
aI650
aI650
aI650
aI650
aI650
aI650
aI650
aa(lp76
I650
aI650
aI650
aI650
aI650
aI650
aI650
aI650
aI650
aI650
aI650
aI650
aI650
aI650
aI650
aI650
aI650
aI650
aI650
aI650
aI650
aI650
aI650
aI650
aI650
aI650
aI650
aI650
aI650
aI650
aI650
aI650
aI650
aa(lp77
I650
aI650
aI650
aI650
aI650
aI650
aI650
aI650
aI650
aI650
aI650
aI650
aI650
aI650
aI650
aI650
aI650
aI650
aI650
aa(lp78
I650
aI650
aI650
aI650
aI650
aI650
aI650
aI650
aI650
aI650
aI650
aI650
aI650
aI650
aI650
aI650
aI650
aI650
aI650
aI650
aI650
aI650
aI650
aI650
aI650
aI650
aI650
aI650
aI650
aI650
aI650
aI650
aI650
aa(lp79
I650
aI650
aI650
aI650
aI650
aI650
aI650
aI650
aI650
aI650
aI650
aI650
aI650
aI650
aI650
aI650
aI650
aI650
aI650
aI650
aI650
aI650
aI650
aI650
aI650
aI650
aI650
aI650
aI650
aI650
aI650
aI650
aI650
aa(lp80
I650
aI650
aI650
aI650
aI650
aI650
aI650
aI650
aI650
aI650
aI650
aI650
aI650
aI650
aI650
aI650
aI650
aI650
aI650
aI650
aI650
aI650
aI650
aI650
aI650
aI650
aI650
aI650
aI650
aI650
aI650
aI650
aI650
aa(lp81
I650
aI637
aI650
aI635
aI650
aI637
aI650
aI635
aI650
aI635
aI650
aI639
aI650
aI634
aI650
aI635
aI650
aI635
aI650
aI634
aI650
aI633
aI650
aI637
aI650
aI635
aI650
aI639
aI650
aI637
aI650
aI636
aI650
aa(lp82
I650
aI580
aI650
aI586
aI650
aI650
aI650
aI650
aI650
aI580
aI650
aI650
aI650
aI571
aI650
aI606
aI650
aI581
aI650
aI612
aI650
aI582
aI650
aI650
aI650
aI611
aI650
aI650
aI650
aI650
aI650
aI650
aI650
aa(lp83
I636
aI650
aI637
aI650
aI638
aI650
aI637
aI650
aI637
aI650
aI632
aI650
aI635
aI650
aI638
aI650
aI637
aI650
aI635
aI650
aI637
aI650
aI637
aI650
aI632
aI650
aI635
aI650
aI636
aI650
aI635
aI650
aI638
aa(lp84
I650
aI650
aI650
aI650
aI650
aI650
aI650
aI650
aI650
aI650
aI650
aI650
aI650
aI650
aI650
aI650
aI650
aI650
aI650
aI650
aI650
aI650
aI650
aI650
aI650
aI650
aI650
aI650
aI650
aI650
aI650
aI650
aI650
aa(lp85
I650
aI650
aI650
aI650
aI650
aI650
aI650
aI650
aI650
aI650
aI650
aI650
aI650
aI650
aI650
aI650
aI650
aI650
aI650
aI650
aI650
aI650
aI650
aI650
aI650
aI650
aI650
aI650
aI650
aI650
aI650
aI650
aI650
aa(lp86
I650
aI650
aI650
aI650
aI650
aI650
aI650
aI650
aI650
aI650
aI650
aI650
aI650
aI650
aI650
aI650
aI650
aI650
aI650
aI650
aI650
aI650
aI650
aI650
aI650
aI650
aI650
aI650
aI650
aI650
aI650
aI650
aI650
aa(lp87
I650
aI650
aI650
aI650
aI650
aI650
aI650
aI650
aI650
aI650
aI650
aI650
aI650
aI650
aI650
aI650
aI650
aI650
aI650
aI650
aI650
aI650
aI650
aI650
aI650
aI650
aI650
aI650
aI650
aI650
aI650
aI650
aI650
aa(lp88
I650
aI650
aI650
aI650
aI650
aI650
aI650
aI650
aI650
aI650
aI650
aI650
aI650
aI650
aI650
aI650
aI650
aI650
aI650
aI650
aI650
aI650
aI650
aI650
aI650
aI650
aI650
aI650
aI650
aI650
aI650
aa(lp89
I650
aI650
aI650
aI650
aI650
aI650
aI650
aI650
aI650
aI650
aI650
aI650
aI650
aI650
aI650
aI650
aI650
aI650
aI650
aI650
aI650
aI650
aI650
aI650
aI650
aI650
aa(lp90
I650
aI650
aI650
aI650
aI650
aI650
aI650
aI650
aI650
aI650
aa(lp91
I650
aI650
aI650
aI650
aI650
aI650
aI650
aI650
aI650
aI650
aI650
aI650
aI650
aI650
aI650
aI650
aI650
aI650
aI650
aI650
aI650
aI650
aI650
aI650
aI650
aI650
aI650
aI650
aI650
aI650
aI650
aI650
aa(lp92
I650
aI650
aI650
aI650
aI650
aI650
aI650
aI650
aI650
aI650
aI650
aI650
aI650
aI650
aI650
aI650
aI650
aI650
aI650
aI650
aI650
aI650
aI650
aI650
aI650
aI650
aI650
aI650
aI650
aI650
aI650
aa(lp93
I650
aI650
aI650
aI650
aI650
aI650
aI650
aI650
aI650
aI650
aI650
aI650
aI650
aI650
aI650
aI650
aa(lp94
I650
aI650
aI650
aI650
aI650
aI650
aI650
aI650
aI650
aI650
aI650
aI650
aI650
aI650
aI650
aI650
aI650
aa(lp95
I650
aI650
aI650
aI650
aI650
aI650
aI650
aI650
aI650
aI650
aI650
aI650
aI650
aI650
aI650
aI650
aI650
aI650
aI650
aI650
aI650
aI650
aI650
aI650
aI650
aI650
aI650
aI650
aI650
aI650
aI650
aI650
aa(lp96
I650
aI650
aI650
aI650
aI650
aI650
aI650
aI650
aI650
aI650
aI650
aI650
aI650
aI650
aI650
aI650
aI650
aI650
aI650
aI650
aI650
aI650
aI650
aI650
aI650
aI650
aI650
aI650
aI650
aI650
aI650
aI650
aa(lp97
I650
aI650
aI650
aI650
aI650
aI650
aI650
aI650
aI650
aI650
aI650
aI650
aI650
aI650
aI650
aI650
aI650
aI650
aI650
aI650
aI650
aI650
aI650
aI650
aI650
aI650
aI650
aa(lp98
I650
aI650
aI650
aI650
aI650
aI650
aI650
aI650
aI650
aI650
aI650
aI650
aI650
aa(lp99
I650
aI650
aI650
aI650
aI650
aI650
aI650
aI650
aI650
aI650
aI650
aI650
aI650
aI650
aI650
aI650
aa.